target datalayout = "e-m:e-p270:32:32-p271:32:32-p272:64:64-i64:64-i128:128-f80:128-n8:16:32:64-S128"
target triple = "x86_64-pc-linux-gnu"

%struct.FunctionCallInfoBaseData = type { ptr, ptr, ptr, i32, i8, i16, [0 x %struct.NullableDatum] }
%struct.NullableDatum = type { i64, i8 }
%struct.ArrayBuildState = type { ptr, ptr, ptr, i32, i32, i32, i16, i8, i8, i8 }

@CurrentMemoryContext = external global ptr, align 8

; Function Attrs: inlinehint nounwind uwtable
define internal ptr @DatumGetPointer(i64 noundef %0) #2 {
  %2 = alloca i64, align 8
  store i64 %0, ptr %2, align 8
  %3 = load i64, ptr %2, align 8
  %4 = inttoptr i64 %3 to ptr
  ret ptr %4
}

; Function Attrs: nounwind uwtable
define dso_local i64 @array_agg_finalfn(ptr noundef %0) #0 {
  %2 = alloca i64, align 8
  %3 = alloca ptr, align 8
  %4 = alloca i64, align 8
  %5 = alloca ptr, align 8
  %6 = alloca [1 x i32], align 4
  %7 = alloca [1 x i32], align 4
  %8 = alloca i32, align 4
  store ptr %0, ptr %3, align 8
  call void @llvm.lifetime.start.p0(i64 8, ptr %4) #7
  call void @llvm.lifetime.start.p0(i64 8, ptr %5) #7
  call void @llvm.lifetime.start.p0(i64 4, ptr %6) #7
  call void @llvm.lifetime.start.p0(i64 4, ptr %7) #7
  %9 = load ptr, ptr %3, align 8
  %10 = getelementptr inbounds nuw %struct.FunctionCallInfoBaseData, ptr %9, i32 0, i32 6
  %11 = getelementptr inbounds [0 x %struct.NullableDatum], ptr %10, i64 0, i64 0
  %12 = getelementptr inbounds nuw %struct.NullableDatum, ptr %11, i32 0, i32 1
  %13 = load i8, ptr %12, align 8, !range !4, !noundef !5
  %14 = trunc i8 %13 to i1
  br i1 %14, label %15, label %16

15:                                               ; preds = %1
  br label %23

16:                                               ; preds = %1
  %17 = load ptr, ptr %3, align 8
  %18 = getelementptr inbounds nuw %struct.FunctionCallInfoBaseData, ptr %17, i32 0, i32 6
  %19 = getelementptr inbounds [0 x %struct.NullableDatum], ptr %18, i64 0, i64 0
  %20 = getelementptr inbounds nuw %struct.NullableDatum, ptr %19, i32 0, i32 0
  %21 = load i64, ptr %20, align 8
  %22 = call ptr @DatumGetPointer(i64 noundef %21)
  br label %23

23:                                               ; preds = %16, %15
  %24 = phi ptr [ null, %15 ], [ %22, %16 ]
  store ptr %24, ptr %5, align 8
  %25 = load ptr, ptr %5, align 8
  %26 = icmp eq ptr %25, null
  br i1 %26, label %27, label %33

27:                                               ; preds = %23
  br label %28

28:                                               ; preds = %27
  %29 = load ptr, ptr %3, align 8
  %30 = getelementptr inbounds nuw %struct.FunctionCallInfoBaseData, ptr %29, i32 0, i32 4
  store i8 1, ptr %30, align 4
  store i64 0, ptr %2, align 8
  store i32 1, ptr %8, align 4
  br label %45

31:                                               ; No predecessors!
  br label %32

32:                                               ; preds = %31
  br label %33

33:                                               ; preds = %32, %23
  %34 = load ptr, ptr %5, align 8
  %35 = getelementptr inbounds nuw %struct.ArrayBuildState, ptr %34, i32 0, i32 4
  %36 = load i32, ptr %35, align 4
  %37 = getelementptr inbounds [1 x i32], ptr %6, i64 0, i64 0
  store i32 %36, ptr %37, align 4
  %38 = getelementptr inbounds [1 x i32], ptr %7, i64 0, i64 0
  store i32 1, ptr %38, align 4
  %39 = load ptr, ptr %5, align 8
  %40 = getelementptr inbounds [1 x i32], ptr %6, i64 0, i64 0
  %41 = getelementptr inbounds [1 x i32], ptr %7, i64 0, i64 0
  %42 = load ptr, ptr @CurrentMemoryContext, align 8
  %43 = call i64 @makeMdArrayResult(ptr noundef %39, i32 noundef 1, ptr noundef %40, ptr noundef %41, ptr noundef %42, i1 noundef zeroext false)
  store i64 %43, ptr %4, align 8
  %44 = load i64, ptr %4, align 8
  store i64 %44, ptr %2, align 8
  store i32 1, ptr %8, align 4
  br label %45

45:                                               ; preds = %33, %28
  call void @llvm.lifetime.end.p0(i64 4, ptr %7) #7
  call void @llvm.lifetime.end.p0(i64 4, ptr %6) #7
  call void @llvm.lifetime.end.p0(i64 8, ptr %5) #7
  call void @llvm.lifetime.end.p0(i64 8, ptr %4) #7
  %46 = load i64, ptr %2, align 8
  ret i64 %46
}