; Function Attrs: nounwind uwtable
define dso_local i64 @array_agg_finalfn(ptr noundef captures(none) %0) local_unnamed_addr #0 {
  %2 = alloca [1 x i32], align 4
  %3 = alloca [1 x i32], align 4
  call void @llvm.lifetime.start.p0(i64 4, ptr nonnull %2) #10
  call void @llvm.lifetime.start.p0(i64 4, ptr nonnull %3) #10
  %4 = getelementptr inbounds nuw i8, ptr %0, i64 40
  %5 = load i8, ptr %4, align 8, !range !4, !noundef !5
  %6 = trunc nuw i8 %5 to i1
  br i1 %6, label %.thread, label %7

7:                                                ; preds = %1
  %8 = getelementptr inbounds nuw i8, ptr %0, i64 32
  %9 = load i64, ptr %8, align 8
  %10 = icmp eq i64 %9, 0
  br i1 %10, label %.thread, label %12

.thread:                                          ; preds = %1, %7
  %11 = getelementptr inbounds nuw i8, ptr %0, i64 28
  store i8 1, ptr %11, align 4
  br label %18

12:                                               ; preds = %7
  %13 = inttoptr i64 %9 to ptr
  %14 = getelementptr inbounds nuw i8, ptr %13, i64 28
  %15 = load i32, ptr %14, align 4
  store i32 %15, ptr %2, align 4
  store i32 1, ptr %3, align 4
  %16 = load ptr, ptr @CurrentMemoryContext, align 8
  %17 = call i64 @makeMdArrayResult(ptr noundef nonnull %13, i32 noundef 1, ptr noundef nonnull %2, ptr noundef nonnull %3, ptr noundef %16, i1 noundef zeroext false) #10
  br label %18

18:                                               ; preds = %12, %.thread
  %.0 = phi i64 [ 0, %.thread ], [ %17, %12 ]
  call void @llvm.lifetime.end.p0(i64 4, ptr nonnull %3) #10
  call void @llvm.lifetime.end.p0(i64 4, ptr nonnull %2) #10
  ret i64 %.0
}